target datalayout = "e-m:e-p270:32:32-p271:32:32-p272:64:64-i64:64-i128:128-f80:128-n8:16:32:64-S128"
target triple = "x86_64-pc-linux-gnu"

%struct.archive_read_filter = type { i64, ptr, ptr, ptr, ptr, ptr, ptr, i32, i32, i32, ptr, i64, ptr, i64, ptr, i64, ptr, i64, i8, i8, i8 }
%struct.private_data = type { ptr, i64, i64, i32, i32, i64, i64, ptr, i32, i32, i32, i32, i32, i32, i32, i32, i32, [65536 x i8], [65536 x i16], ptr, [65300 x i8] }

@getbits.mask = internal constant [17 x i32] [i32 0, i32 1, i32 3, i32 7, i32 15, i32 31, i32 63, i32 127, i32 255, i32 511, i32 1023, i32 2047, i32 4095, i32 8191, i32 16383, i32 32767, i32 65535], align 16

; Function Attrs: nounwind uwtable
define internal i32 @getbits(ptr noundef %0, i32 noundef %1) #0 {
  %3 = alloca i32, align 4
  %4 = alloca ptr, align 8
  %5 = alloca i32, align 4
  %6 = alloca ptr, align 8
  %7 = alloca i32, align 4
  %8 = alloca i64, align 8
  store ptr %0, ptr %4, align 8
  store i32 %1, ptr %5, align 4
  %9 = load ptr, ptr %4, align 8
  %10 = getelementptr inbounds %struct.archive_read_filter, ptr %9, i32 0, i32 5
  %11 = load ptr, ptr %10, align 8
  store ptr %11, ptr %6, align 8
  br label %12

12:                                               ; preds = %63, %2
  %13 = load ptr, ptr %6, align 8
  %14 = getelementptr inbounds %struct.private_data, ptr %13, i32 0, i32 4
  %15 = load i32, ptr %14, align 4
  %16 = load i32, ptr %5, align 4
  %17 = icmp slt i32 %15, %16
  br i1 %17, label %18, label %90

18:                                               ; preds = %12
  %19 = load ptr, ptr %6, align 8
  %20 = getelementptr inbounds %struct.private_data, ptr %19, i32 0, i32 1
  %21 = load i64, ptr %20, align 8
  %22 = icmp ule i64 %21, 0
  br i1 %22, label %23, label %63

23:                                               ; preds = %18
  %24 = load ptr, ptr %6, align 8
  %25 = getelementptr inbounds %struct.private_data, ptr %24, i32 0, i32 2
  %26 = load i64, ptr %25, align 8
  %27 = icmp ne i64 %26, 0
  br i1 %27, label %28, label %38

28:                                               ; preds = %23
  %29 = load ptr, ptr %4, align 8
  %30 = getelementptr inbounds %struct.archive_read_filter, ptr %29, i32 0, i32 2
  %31 = load ptr, ptr %30, align 8
  %32 = load ptr, ptr %6, align 8
  %33 = getelementptr inbounds %struct.private_data, ptr %32, i32 0, i32 2
  %34 = load i64, ptr %33, align 8
  %35 = call i64 @__archive_read_filter_consume(ptr noundef %31, i64 noundef %34)
  %36 = load ptr, ptr %6, align 8
  %37 = getelementptr inbounds %struct.private_data, ptr %36, i32 0, i32 2
  store i64 0, ptr %37, align 8
  br label %38

38:                                               ; preds = %28, %23
  %39 = load ptr, ptr %4, align 8
  %40 = getelementptr inbounds %struct.archive_read_filter, ptr %39, i32 0, i32 2
  %41 = load ptr, ptr %40, align 8
  %42 = call ptr @__archive_read_filter_ahead(ptr noundef %41, i64 noundef 1, ptr noundef %8)
  %43 = load ptr, ptr %6, align 8
  %44 = getelementptr inbounds %struct.private_data, ptr %43, i32 0, i32 0
  store ptr %42, ptr %44, align 8
  %45 = load i64, ptr %8, align 8
  %46 = icmp eq i64 %45, 0
  br i1 %46, label %47, label %48

47:                                               ; preds = %38
  store i32 -1, ptr %3, align 4
  br label %110

48:                                               ; preds = %38
  %49 = load i64, ptr %8, align 8
  %50 = icmp slt i64 %49, 0
  br i1 %50, label %56, label %51

51:                                               ; preds = %48
  %52 = load ptr, ptr %6, align 8
  %53 = getelementptr inbounds %struct.private_data, ptr %52, i32 0, i32 0
  %54 = load ptr, ptr %53, align 8
  %55 = icmp eq ptr %54, null
  br i1 %55, label %56, label %57

56:                                               ; preds = %51, %48
  store i32 -30, ptr %3, align 4
  br label %110

57:                                               ; preds = %51
  %58 = load i64, ptr %8, align 8
  %59 = load ptr, ptr %6, align 8
  %60 = getelementptr inbounds %struct.private_data, ptr %59, i32 0, i32 1
  store i64 %58, ptr %60, align 8
  %61 = load ptr, ptr %6, align 8
  %62 = getelementptr inbounds %struct.private_data, ptr %61, i32 0, i32 2
  store i64 %58, ptr %62, align 8
  br label %63

63:                                               ; preds = %57, %18
  %64 = load ptr, ptr %6, align 8
  %65 = getelementptr inbounds %struct.private_data, ptr %64, i32 0, i32 0
  %66 = load ptr, ptr %65, align 8
  %67 = getelementptr inbounds i8, ptr %66, i32 1
  store ptr %67, ptr %65, align 8
  %68 = load i8, ptr %66, align 1
  %69 = zext i8 %68 to i32
  %70 = load ptr, ptr %6, align 8
  %71 = getelementptr inbounds %struct.private_data, ptr %70, i32 0, i32 4
  %72 = load i32, ptr %71, align 4
  %73 = shl i32 %69, %72
  %74 = load ptr, ptr %6, align 8
  %75 = getelementptr inbounds %struct.private_data, ptr %74, i32 0, i32 3
  %76 = load i32, ptr %75, align 8
  %77 = or i32 %76, %73
  store i32 %77, ptr %75, align 8
  %78 = load ptr, ptr %6, align 8
  %79 = getelementptr inbounds %struct.private_data, ptr %78, i32 0, i32 1
  %80 = load i64, ptr %79, align 8
  %81 = add i64 %80, -1
  store i64 %81, ptr %79, align 8
  %82 = load ptr, ptr %6, align 8
  %83 = getelementptr inbounds %struct.private_data, ptr %82, i32 0, i32 4
  %84 = load i32, ptr %83, align 4
  %85 = add nsw i32 %84, 8
  store i32 %85, ptr %83, align 4
  %86 = load ptr, ptr %6, align 8
  %87 = getelementptr inbounds %struct.private_data, ptr %86, i32 0, i32 5
  %88 = load i64, ptr %87, align 8
  %89 = add i64 %88, 1
  store i64 %89, ptr %87, align 8
  br label %12, !llvm.loop !7

90:                                               ; preds = %12
  %91 = load ptr, ptr %6, align 8
  %92 = getelementptr inbounds %struct.private_data, ptr %91, i32 0, i32 3
  %93 = load i32, ptr %92, align 8
  store i32 %93, ptr %7, align 4
  %94 = load i32, ptr %5, align 4
  %95 = load ptr, ptr %6, align 8
  %96 = getelementptr inbounds %struct.private_data, ptr %95, i32 0, i32 3
  %97 = load i32, ptr %96, align 8
  %98 = ashr i32 %97, %94
  store i32 %98, ptr %96, align 8
  %99 = load i32, ptr %5, align 4
  %100 = load ptr, ptr %6, align 8
  %101 = getelementptr inbounds %struct.private_data, ptr %100, i32 0, i32 4
  %102 = load i32, ptr %101, align 4
  %103 = sub nsw i32 %102, %99
  store i32 %103, ptr %101, align 4
  %104 = load i32, ptr %7, align 4
  %105 = load i32, ptr %5, align 4
  %106 = sext i32 %105 to i64
  %107 = getelementptr inbounds [17 x i32], ptr @getbits.mask, i64 0, i64 %106
  %108 = load i32, ptr %107, align 4
  %109 = and i32 %104, %108
  store i32 %109, ptr %3, align 4
  br label %110

110:                                              ; preds = %90, %56, %47
  %111 = load i32, ptr %3, align 4
  ret i32 %111
}