; Function Attrs: nounwind uwtable
define internal fastcc i32 @getbits(ptr noundef readonly captures(none) %0, i32 noundef %1) unnamed_addr #0 {
  %3 = alloca i64, align 8
  %4 = getelementptr inbounds nuw i8, ptr %0, i64 40
  %5 = load ptr, ptr %4, align 8
  %6 = getelementptr inbounds nuw i8, ptr %5, i64 28
  %7 = load i32, ptr %6, align 4
  %8 = icmp slt i32 %7, %1
  br i1 %8, label %.lr.ph, label %.._crit_edge_crit_edge

.._crit_edge_crit_edge:                           ; preds = %2
  %.phi.trans.insert = getelementptr inbounds nuw i8, ptr %5, i64 24
  %.pre37 = load i32, ptr %.phi.trans.insert, align 8
  br label %._crit_edge

.lr.ph:                                           ; preds = %2
  %9 = getelementptr inbounds nuw i8, ptr %5, i64 8
  %10 = getelementptr inbounds nuw i8, ptr %5, i64 16
  %11 = getelementptr inbounds nuw i8, ptr %0, i64 16
  %12 = getelementptr inbounds nuw i8, ptr %5, i64 24
  %13 = getelementptr inbounds nuw i8, ptr %5, i64 32
  %.pre = load i64, ptr %9, align 8
  br label %14

14:                                               ; preds = %.lr.ph, %32
  %15 = phi i32 [ %7, %.lr.ph ], [ %43, %32 ]
  %16 = phi i64 [ %.pre, %.lr.ph ], [ %42, %32 ]
  %17 = icmp eq i64 %16, 0
  br i1 %17, label %18, label %._crit_edge34

._crit_edge34:                                    ; preds = %14
  %.pre35 = load ptr, ptr %5, align 8
  br label %32

18:                                               ; preds = %14
  %19 = load i64, ptr %10, align 8
  %.not = icmp eq i64 %19, 0
  br i1 %.not, label %23, label %20

20:                                               ; preds = %18
  %21 = load ptr, ptr %11, align 8
  %22 = call i64 @__archive_read_filter_consume(ptr noundef %21, i64 noundef %19) #6
  store i64 0, ptr %10, align 8
  br label %23

23:                                               ; preds = %20, %18
  %24 = load ptr, ptr %11, align 8
  %25 = call ptr @__archive_read_filter_ahead(ptr noundef %24, i64 noundef 1, ptr noundef nonnull %3) #6
  store ptr %25, ptr %5, align 8
  %26 = load i64, ptr %3, align 8
  %27 = icmp eq i64 %26, 0
  br i1 %27, label %.loopexit, label %28

28:                                               ; preds = %23
  %29 = icmp slt i64 %26, 0
  %30 = icmp eq ptr %25, null
  %or.cond = select i1 %29, i1 true, i1 %30
  br i1 %or.cond, label %.loopexit, label %31

31:                                               ; preds = %28
  store i64 %26, ptr %9, align 8
  store i64 %26, ptr %10, align 8
  %.pre36 = load i32, ptr %6, align 4
  br label %32

32:                                               ; preds = %._crit_edge34, %31
  %33 = phi i64 [ %16, %._crit_edge34 ], [ %26, %31 ]
  %34 = phi i32 [ %15, %._crit_edge34 ], [ %.pre36, %31 ]
  %35 = phi ptr [ %.pre35, %._crit_edge34 ], [ %25, %31 ]
  %36 = getelementptr inbounds nuw i8, ptr %35, i64 1
  store ptr %36, ptr %5, align 8
  %37 = load i8, ptr %35, align 1
  %38 = zext i8 %37 to i32
  %39 = shl i32 %38, %34
  %40 = load i32, ptr %12, align 8
  %41 = or i32 %40, %39
  store i32 %41, ptr %12, align 8
  %42 = add i64 %33, -1
  store i64 %42, ptr %9, align 8
  %43 = add nsw i32 %34, 8
  store i32 %43, ptr %6, align 4
  %44 = load i64, ptr %13, align 8
  %45 = add i64 %44, 1
  store i64 %45, ptr %13, align 8
  %46 = icmp slt i32 %43, %1
  br i1 %46, label %14, label %._crit_edge, !llvm.loop !7

._crit_edge:                                      ; preds = %32, %.._crit_edge_crit_edge
  %47 = phi i32 [ %.pre37, %.._crit_edge_crit_edge ], [ %41, %32 ]
  %.lcssa = phi i32 [ %7, %.._crit_edge_crit_edge ], [ %43, %32 ]
  %48 = getelementptr inbounds nuw i8, ptr %5, i64 24
  %49 = ashr i32 %47, %1
  store i32 %49, ptr %48, align 8
  %50 = sub nsw i32 %.lcssa, %1
  store i32 %50, ptr %6, align 4
  %51 = sext i32 %1 to i64
  %52 = getelementptr inbounds [17 x i32], ptr @getbits.mask, i64 0, i64 %51
  %53 = load i32, ptr %52, align 4
  %54 = and i32 %53, %47
  br label %.loopexit

.loopexit:                                        ; preds = %28, %23, %._crit_edge
  %.0 = phi i32 [ %54, %._crit_edge ], [ -30, %28 ], [ -1, %23 ]
  ret i32 %.0
}